target datalayout = "e-m:e-p270:32:32-p271:32:32-p272:64:64-i64:64-i128:128-f80:128-n8:16:32:64-S128"
target triple = "x86_64-pc-linux-gnu"

%struct.SDL_Cursor = type { ptr, ptr }
%struct.SDL_CursorData = type { i64 }
%struct.SDL_VideoDevice = type { ptr, ptr, ptr, ptr, ptr, ptr, ptr, ptr, ptr, ptr, ptr, ptr, ptr, ptr, ptr, ptr, ptr, ptr, ptr, ptr, ptr, ptr, ptr, ptr, ptr, ptr, ptr, ptr, ptr, ptr, ptr, ptr, ptr, ptr, ptr, ptr, ptr, ptr, ptr, ptr, ptr, ptr, ptr, ptr, ptr, ptr, ptr, ptr, ptr, ptr, ptr, ptr, ptr, ptr, ptr, ptr, ptr, ptr, ptr, ptr, ptr, ptr, ptr, ptr, ptr, ptr, ptr, ptr, ptr, ptr, ptr, ptr, ptr, ptr, ptr, ptr, ptr, ptr, ptr, ptr, ptr, ptr, ptr, ptr, ptr, ptr, ptr, ptr, ptr, ptr, ptr, ptr, ptr, ptr, ptr, ptr, ptr, i64, i8, i8, i8, ptr, i32, ptr, %struct.SDL_Rect, ptr, ptr, i32, ptr, ptr, ptr, ptr, i64, ptr, i8, i32, i32, %struct.anon, ptr, ptr, ptr, ptr, ptr, ptr, %struct.SDL_AtomicInt, %struct.SDL_AtomicInt, i8, %struct.anon.0, ptr, ptr, ptr, ptr, ptr }
%struct.SDL_Rect = type { i32, i32, i32, i32 }
%struct.anon = type { i32, i32, i32, i32, i32, i32, i32, i32, i32, i32, i32, i32, i32, i32, i32, i32, i32, i32, i32, i32, i32, i32, i32, i32, i32, i32, i32, i32, i32, [256 x i8], ptr }
%struct.SDL_AtomicInt = type { i32 }
%struct.anon.0 = type { ptr, ptr, i32, [256 x i8], ptr }
%struct.SDL_Point = type { i32, i32 }
%struct.SDL_VideoData = type { ptr, ptr, i32, ptr, i64, i32, ptr, i32, i64, i64, %struct.X11_ClipboardData, %struct.X11_ClipboardData, ptr, i64, %struct.X11_SettingsData, i8, %struct.anon.1, [256 x i32], i8, i8, i8, i64, i8, %struct.SDL_Point, i32, ptr, i32, i8, i32, %struct.anon.2, i8, i64, ptr, ptr, i8, i8, i8 }
%struct.X11_ClipboardData = type { ptr, ptr, ptr, i64, i32 }
%struct.X11_SettingsData = type { ptr }
%struct.anon.1 = type { i64, i64, i64, i64, i64, i64, i64, i64, i64, i64, i64, i64, i64, i64, i64, i64, i64, i64, i64, i64, i64, i64, i64, i64, i64, i64, i64, i64, i64, i64, i64, i64, i64, i64, i64, i64, i64, i64, i64, i64, i64, i64, i64, i64, i64, i64, i64, i64, i64, i64, i64, i64, i64 }
%struct.anon.2 = type { ptr, i32, i32, i32, i16, i32, i32 }

@SDL_X11_HAVE_XCURSOR = external global i32, align 4
@X11_XcursorLibraryLoadCursor = external global ptr, align 8
@X11_XCreateFontCursor = external global ptr, align 8

; Function Attrs: nounwind uwtable
define internal ptr @X11_CreateCursorAndData(i64 noundef %0) #0 {
  %2 = alloca ptr, align 8
  %3 = alloca i64, align 8
  %4 = alloca ptr, align 8
  %5 = alloca ptr, align 8
  %6 = alloca i32, align 4
  store i64 %0, ptr %3, align 8
  call void @llvm.lifetime.start.p0(i64 8, ptr %4) #6
  %7 = call noalias ptr @SDL_calloc_REAL(i64 noundef 1, i64 noundef 16) #7
  store ptr %7, ptr %4, align 8
  %8 = load ptr, ptr %4, align 8
  %9 = icmp ne ptr %8, null
  br i1 %9, label %10, label %26

10:                                               ; preds = %1
  call void @llvm.lifetime.start.p0(i64 8, ptr %5) #6
  %11 = call noalias ptr @SDL_calloc_REAL(i64 noundef 1, i64 noundef 8) #7
  store ptr %11, ptr %5, align 8
  %12 = load ptr, ptr %5, align 8
  %13 = icmp ne ptr %12, null
  br i1 %13, label %16, label %14

14:                                               ; preds = %10
  %15 = load ptr, ptr %4, align 8
  call void @SDL_free_REAL(ptr noundef %15)
  store ptr null, ptr %2, align 8
  store i32 1, ptr %6, align 4
  br label %23

16:                                               ; preds = %10
  %17 = load i64, ptr %3, align 8
  %18 = load ptr, ptr %5, align 8
  %19 = getelementptr inbounds nuw %struct.SDL_CursorData, ptr %18, i32 0, i32 0
  store i64 %17, ptr %19, align 8
  %20 = load ptr, ptr %5, align 8
  %21 = load ptr, ptr %4, align 8
  %22 = getelementptr inbounds nuw %struct.SDL_Cursor, ptr %21, i32 0, i32 1
  store ptr %20, ptr %22, align 8
  store i32 0, ptr %6, align 4
  br label %23

23:                                               ; preds = %16, %14
  call void @llvm.lifetime.end.p0(i64 8, ptr %5) #6
  %24 = load i32, ptr %6, align 4
  switch i32 %24, label %28 [
    i32 0, label %25
  ]

25:                                               ; preds = %23
  br label %26

26:                                               ; preds = %25, %1
  %27 = load ptr, ptr %4, align 8
  store ptr %27, ptr %2, align 8
  store i32 1, ptr %6, align 4
  br label %28

28:                                               ; preds = %26, %23
  call void @llvm.lifetime.end.p0(i64 8, ptr %4) #6
  %29 = load ptr, ptr %2, align 8
  ret ptr %29
}

; Function Attrs: nounwind uwtable
define internal i32 @GetLegacySystemCursorShape(i32 noundef %0) #0 {
  %2 = alloca i32, align 4
  %3 = alloca i32, align 4
  store i32 %0, ptr %3, align 4
  %4 = load i32, ptr %3, align 4
  switch i32 %4, label %25 [
    i32 0, label %5
    i32 1, label %6
    i32 2, label %7
    i32 3, label %8
    i32 4, label %9
    i32 5, label %10
    i32 6, label %11
    i32 7, label %12
    i32 8, label %13
    i32 9, label %14
    i32 10, label %15
    i32 11, label %16
    i32 12, label %17
    i32 13, label %18
    i32 14, label %19
    i32 15, label %20
    i32 16, label %21
    i32 17, label %22
    i32 18, label %23
    i32 19, label %24
    i32 20, label %25
  ]

5:                                                ; preds = %1
  store i32 68, ptr %2, align 4
  br label %28

6:                                                ; preds = %1
  store i32 152, ptr %2, align 4
  br label %28

7:                                                ; preds = %1
  store i32 150, ptr %2, align 4
  br label %28

8:                                                ; preds = %1
  store i32 130, ptr %2, align 4
  br label %28

9:                                                ; preds = %1
  store i32 150, ptr %2, align 4
  br label %28

10:                                               ; preds = %1
  store i32 134, ptr %2, align 4
  br label %28

11:                                               ; preds = %1
  store i32 136, ptr %2, align 4
  br label %28

12:                                               ; preds = %1
  store i32 108, ptr %2, align 4
  br label %28

13:                                               ; preds = %1
  store i32 116, ptr %2, align 4
  br label %28

14:                                               ; preds = %1
  store i32 52, ptr %2, align 4
  br label %28

15:                                               ; preds = %1
  store i32 88, ptr %2, align 4
  br label %28

16:                                               ; preds = %1
  store i32 60, ptr %2, align 4
  br label %28

17:                                               ; preds = %1
  store i32 134, ptr %2, align 4
  br label %28

18:                                               ; preds = %1
  store i32 138, ptr %2, align 4
  br label %28

19:                                               ; preds = %1
  store i32 136, ptr %2, align 4
  br label %28

20:                                               ; preds = %1
  store i32 96, ptr %2, align 4
  br label %28

21:                                               ; preds = %1
  store i32 14, ptr %2, align 4
  br label %28

22:                                               ; preds = %1
  store i32 16, ptr %2, align 4
  br label %28

23:                                               ; preds = %1
  store i32 12, ptr %2, align 4
  br label %28

24:                                               ; preds = %1
  store i32 70, ptr %2, align 4
  br label %28

25:                                               ; preds = %1, %1
  br label %26

26:                                               ; preds = %25
  br label %27

27:                                               ; preds = %26
  store i32 0, ptr %2, align 4
  br label %28

28:                                               ; preds = %27, %24, %23, %22, %21, %20, %19, %18, %17, %16, %15, %14, %13, %12, %11, %10, %9, %8, %7, %6, %5
  %29 = load i32, ptr %2, align 4
  ret i32 %29
}

; Function Attrs: nounwind uwtable
define internal ptr @GetDisplay() #0 {
  %1 = call ptr @SDL_GetVideoDevice()
  %2 = getelementptr inbounds nuw %struct.SDL_VideoDevice, ptr %1, i32 0, i32 128
  %3 = load ptr, ptr %2, align 8
  %4 = getelementptr inbounds nuw %struct.SDL_VideoData, ptr %3, i32 0, i32 0
  %5 = load ptr, ptr %4, align 8
  ret ptr %5
}

; Function Attrs: nounwind uwtable
define internal ptr @X11_CreateSystemCursor(i32 noundef %0) #0 {
  %2 = alloca i32, align 4
  %3 = alloca ptr, align 8
  %4 = alloca ptr, align 8
  %5 = alloca i64, align 8
  store i32 %0, ptr %2, align 4
  call void @llvm.lifetime.start.p0(i64 8, ptr %3) #6
  store ptr null, ptr %3, align 8
  call void @llvm.lifetime.start.p0(i64 8, ptr %4) #6
  %6 = call ptr @GetDisplay()
  store ptr %6, ptr %4, align 8
  call void @llvm.lifetime.start.p0(i64 8, ptr %5) #6
  store i64 0, ptr %5, align 8
  %7 = load i32, ptr @SDL_X11_HAVE_XCURSOR, align 4
  %8 = icmp ne i32 %7, 0
  br i1 %8, label %9, label %15

9:                                                ; preds = %1
  %10 = load ptr, ptr @X11_XcursorLibraryLoadCursor, align 8
  %11 = load ptr, ptr %4, align 8
  %12 = load i32, ptr %2, align 4
  %13 = call ptr @SDL_GetCSSCursorName(i32 noundef %12, ptr noundef null)
  %14 = call i64 %10(ptr noundef %11, ptr noundef %13)
  store i64 %14, ptr %5, align 8
  br label %15

15:                                               ; preds = %9, %1
  %16 = load i64, ptr %5, align 8
  %17 = icmp eq i64 %16, 0
  br i1 %17, label %18, label %24

18:                                               ; preds = %15
  %19 = load ptr, ptr @X11_XCreateFontCursor, align 8
  %20 = load ptr, ptr %4, align 8
  %21 = load i32, ptr %2, align 4
  %22 = call i32 @GetLegacySystemCursorShape(i32 noundef %21)
  %23 = call i64 %19(ptr noundef %20, i32 noundef %22)
  store i64 %23, ptr %5, align 8
  br label %24

24:                                               ; preds = %18, %15
  %25 = load i64, ptr %5, align 8
  %26 = icmp ne i64 %25, 0
  br i1 %26, label %27, label %30

27:                                               ; preds = %24
  %28 = load i64, ptr %5, align 8
  %29 = call ptr @X11_CreateCursorAndData(i64 noundef %28)
  store ptr %29, ptr %3, align 8
  br label %30

30:                                               ; preds = %27, %24
  %31 = load ptr, ptr %3, align 8
  call void @llvm.lifetime.end.p0(i64 8, ptr %5) #6
  call void @llvm.lifetime.end.p0(i64 8, ptr %4) #6
  call void @llvm.lifetime.end.p0(i64 8, ptr %3) #6
  ret ptr %31
}