; Function Attrs: nounwind uwtable
define internal noundef ptr @X11_CreateSystemCursor(i32 noundef %0) #0 {
  %2 = tail call ptr @SDL_GetVideoDevice() #5
  %3 = getelementptr inbounds nuw i8, ptr %2, i64 1656
  %4 = load ptr, ptr %3, align 8
  %5 = load ptr, ptr %4, align 8
  %6 = load i32, ptr @SDL_X11_HAVE_XCURSOR, align 4
  %.not = icmp eq i32 %6, 0
  br i1 %.not, label %.thread, label %7

7:                                                ; preds = %1
  %8 = load ptr, ptr @X11_XcursorLibraryLoadCursor, align 8
  %9 = tail call ptr @SDL_GetCSSCursorName(i32 noundef %0, ptr noundef null) #5
  %10 = tail call i64 %8(ptr noundef %5, ptr noundef %9) #5
  %11 = icmp eq i64 %10, 0
  br i1 %11, label %.thread, label %.thread10

.thread:                                          ; preds = %1, %7
  %12 = load ptr, ptr @X11_XCreateFontCursor, align 8
  %13 = icmp ult i32 %0, 20
  br i1 %13, label %switch.lookup, label %15

switch.lookup:                                    ; preds = %.thread
  %14 = zext nneg i32 %0 to i64
  %switch.gep = getelementptr inbounds nuw [20 x i32], ptr @switch.table.X11_CreateSystemCursor, i64 0, i64 %14
  %switch.load = load i32, ptr %switch.gep, align 4
  br label %15

15:                                               ; preds = %.thread, %switch.lookup
  %.0.i = phi i32 [ %switch.load, %switch.lookup ], [ 0, %.thread ]
  %16 = tail call i64 %12(ptr noundef %5, i32 noundef %.0.i) #5
  %.not8 = icmp eq i64 %16, 0
  br i1 %.not8, label %X11_CreateCursorAndData.exit, label %.thread10

.thread10:                                        ; preds = %7, %15
  %.113 = phi i64 [ %16, %15 ], [ %10, %7 ]
  %17 = tail call noalias dereferenceable_or_null(16) ptr @SDL_calloc_REAL(i64 noundef 1, i64 noundef 16) #6
  %.not.i = icmp eq ptr %17, null
  br i1 %.not.i, label %X11_CreateCursorAndData.exit, label %18

18:                                               ; preds = %.thread10
  %19 = tail call noalias dereferenceable_or_null(8) ptr @SDL_calloc_REAL(i64 noundef 1, i64 noundef 8) #6
  %.not12.not.i = icmp eq ptr %19, null
  br i1 %.not12.not.i, label %.thread.i, label %20

.thread.i:                                        ; preds = %18
  tail call void @SDL_free_REAL(ptr noundef nonnull %17) #5
  br label %X11_CreateCursorAndData.exit

20:                                               ; preds = %18
  store i64 %.113, ptr %19, align 8
  %21 = getelementptr inbounds nuw i8, ptr %17, i64 8
  store ptr %19, ptr %21, align 8
  br label %X11_CreateCursorAndData.exit

X11_CreateCursorAndData.exit:                     ; preds = %20, %.thread.i, %.thread10, %15
  %.07 = phi ptr [ null, %15 ], [ null, %.thread.i ], [ %17, %20 ], [ null, %.thread10 ]
  ret ptr %.07
}